(ikeras_frcnn.config
Config
p0
(dp1
S'use_vertical_flips'
p2
I01
sS'rpn_max_overlap'
p3
F0.7
sS'verbose'
p4
I01
sS'num_rois'
p5
I50
sS'img_channel_mean'
p6
(lp7
F103.939
aF116.779
aF123.68
asS'anchor_box_scales'
p8
(lp9
I128
aI256
aI512
asS'anchor_box_ratios'
p10
(lp11
(lp12
I1
aI1
aa(lp13
I1
aI2
aa(lp14
I2
aI1
aasS'rpn_min_overlap'
p15
F0.3
sS'rot_90'
p16
I01
sS'classifier_min_overlap'
p17
F0.1
sS'im_size'
p18
I600
sS'class_mapping'
p19
(dp20
S'bg'
p21
I5
sS'mk-3'
p22
I1
sS'mk-2'
p23
I3
sS'mk-1'
p24
I2
sS'mk-96'
p25
I0
sS'mk-65'
p26
I4
ssS'img_scaling_factor'
p27
F1.0
sS'base_net_weights'
p28
S'weights/resnet50_weights_tf_dim_ordering_tf_kernels_notop.h5'
p29
sS'classifier_regr_std'
p30
(lp31
F8.0
aF8.0
aF4.0
aF4.0
asS'model_path'
p32
S'weights/model_frcnn_detection.hdf5'
p33
sS'classifier_max_overlap'
p34
F0.5
sS'std_scaling'
p35
F4.0
sS'use_horizontal_flips'
p36
I01
sS'rpn_stride'
p37
I16
sS'balanced_classes'
p38
I00
sb.